; Function Attrs: nounwind uwtable
define range(i32 0, 2) i32 @Abc_NtkCheckUniqueCioNames(ptr noundef readonly captures(none) %0) local_unnamed_addr #0 {
  %2 = getelementptr i8, ptr %0, i64 64
  %.val23 = load ptr, ptr %2, align 8, !tbaa !35
  %3 = getelementptr i8, ptr %.val23, i64 4
  %.val.val24 = load i32, ptr %3, align 4, !tbaa !30
  %4 = icmp sgt i32 %.val.val24, 0
  br i1 %4, label %.lr.ph, label %.critedge

.lr.ph:                                           ; preds = %1
  %5 = getelementptr inbounds nuw i8, ptr %0, i64 24
  %6 = getelementptr i8, ptr %0, i64 32
  br label %7

7:                                                ; preds = %.lr.ph, %35
  %indvars.iv = phi i64 [ 0, %.lr.ph ], [ %indvars.iv.next, %35 ]
  %.val27 = phi ptr [ %.val23, %.lr.ph ], [ %.val, %35 ]
  %.026 = phi i32 [ 1, %.lr.ph ], [ %.1, %35 ]
  %8 = getelementptr i8, ptr %.val27, i64 8
  %.val17.val = load ptr, ptr %8, align 8, !tbaa !38
  %9 = getelementptr inbounds nuw ptr, ptr %.val17.val, i64 %indvars.iv
  %10 = load ptr, ptr %9, align 8, !tbaa !39
  %11 = load ptr, ptr %5, align 8, !tbaa !45
  %12 = tail call ptr @Abc_ObjName(ptr noundef %10) #11
  %13 = tail call i32 @Nm_ManFindIdByNameTwoTypes(ptr noundef %11, ptr noundef %12, i32 noundef 2, i32 noundef 5) #11
  %14 = icmp eq i32 %13, -1
  br i1 %14, label %35, label %15

15:                                               ; preds = %7
  %.val22 = load ptr, ptr %6, align 8, !tbaa !44
  %16 = getelementptr i8, ptr %.val22, i64 8
  %.val22.val = load ptr, ptr %16, align 8, !tbaa !38
  %17 = sext i32 %13 to i64
  %18 = getelementptr inbounds ptr, ptr %.val22.val, i64 %17
  %19 = load ptr, ptr %18, align 8, !tbaa !39
  %.val18 = load ptr, ptr %10, align 8, !tbaa !40
  %20 = getelementptr i8, ptr %10, i64 32
  %.val19 = load ptr, ptr %20, align 8, !tbaa !48
  %21 = getelementptr i8, ptr %.val18, i64 32
  %.val18.val = load ptr, ptr %21, align 8, !tbaa !44
  %.val19.val = load i32, ptr %.val19, align 4, !tbaa !29
  %22 = getelementptr i8, ptr %.val18.val, i64 8
  %.val18.val.val = load ptr, ptr %22, align 8, !tbaa !38
  %23 = sext i32 %.val19.val to i64
  %24 = getelementptr inbounds ptr, ptr %.val18.val.val, i64 %23
  %25 = load ptr, ptr %24, align 8, !tbaa !39
  %.not = icmp eq ptr %25, %19
  br i1 %.not, label %35, label %26

26:                                               ; preds = %15
  %27 = tail call ptr @Abc_ObjName(ptr noundef nonnull %10) #11
  %.val20 = load ptr, ptr %10, align 8, !tbaa !40
  %.val21 = load ptr, ptr %20, align 8, !tbaa !48
  %28 = getelementptr i8, ptr %.val20, i64 32
  %.val20.val = load ptr, ptr %28, align 8, !tbaa !44
  %.val21.val = load i32, ptr %.val21, align 4, !tbaa !29
  %29 = getelementptr i8, ptr %.val20.val, i64 8
  %.val20.val.val = load ptr, ptr %29, align 8, !tbaa !38
  %30 = sext i32 %.val21.val to i64
  %31 = getelementptr inbounds ptr, ptr %.val20.val.val, i64 %30
  %32 = load ptr, ptr %31, align 8, !tbaa !39
  %33 = tail call ptr @Abc_ObjName(ptr noundef %32) #11
  %34 = tail call i32 (ptr, ...) @printf(ptr noundef nonnull dereferenceable(1) @.str.26, ptr noundef %27, ptr noundef %33)
  br label %35

35:                                               ; preds = %15, %26, %7
  %.1 = phi i32 [ %.026, %7 ], [ 0, %26 ], [ %.026, %15 ]
  %indvars.iv.next = add nuw nsw i64 %indvars.iv, 1
  %.val = load ptr, ptr %2, align 8, !tbaa !35
  %36 = getelementptr i8, ptr %.val, i64 4
  %.val.val = load i32, ptr %36, align 4, !tbaa !30
  %37 = sext i32 %.val.val to i64
  %38 = icmp slt i64 %indvars.iv.next, %37
  br i1 %38, label %7, label %.critedge, !llvm.loop !89

.critedge:                                        ; preds = %35, %1
  %.0.lcssa = phi i32 [ 1, %1 ], [ %.1, %35 ]
  ret i32 %.0.lcssa
}